; Function Attrs: mustprogress nounwind uwtable
define dso_local { ptr, i64 } @_ZNK4llvm17MachineBasicBlock7getNameEv(ptr noundef nonnull readonly align 8 captures(none) dereferenceable(288) %0) local_unnamed_addr #0 align 2 {
  %2 = getelementptr inbounds nuw i8, ptr %0, i64 16
  %3 = load ptr, ptr %2, align 8
  %.not = icmp eq ptr %3, null
  br i1 %.not, label %8, label %4

4:                                                ; preds = %1
  %5 = tail call { ptr, i64 } @_ZNK4llvm5Value7getNameEv(ptr noundef nonnull align 8 dereferenceable(24) %3) #29
  %6 = extractvalue { ptr, i64 } %5, 0
  %7 = extractvalue { ptr, i64 } %5, 1
  br label %8

8:                                                ; preds = %1, %4
  %.sroa.3.0 = phi i64 [ %7, %4 ], [ 0, %1 ]
  %.sroa.0.0 = phi ptr [ %6, %4 ], [ @.str.9, %1 ]
  %.fca.0.insert = insertvalue { ptr, i64 } poison, ptr %.sroa.0.0, 0
  %.fca.1.insert = insertvalue { ptr, i64 } %.fca.0.insert, i64 %.sroa.3.0, 1
  ret { ptr, i64 } %.fca.1.insert
}